; Function Attrs: mustprogress nounwind uwtable
define internal fastcc void @_ZN6hermes6ESTree6detail11VisitCallerINS_12_GLOBAL__N_119DependencyExtractorENS0_20ImportExpressionNodeEvE4callERS4_PS5_PNS0_4NodeE(ptr noundef nonnull align 8 dereferenceable(145) %v, ptr readonly %node.48.val) unnamed_addr #0 align 2 {
entry:
  %kind_.i.i.i.i.i.i.i.i.i = getelementptr inbounds i8, ptr %node.48.val, i64 16
  %0 = load i32, ptr %kind_.i.i.i.i.i.i.i.i.i, align 8
  %cmp.i.i.i.i.i.i.i.i = icmp ne i32 %0, 33
  %tobool.not1.i = icmp eq ptr %node.48.val, null
  %tobool.not.i = or i1 %tobool.not1.i, %cmp.i.i.i.i.i.i.i.i
  br i1 %tobool.not.i, label %_ZN6hermes12_GLOBAL__N_119DependencyExtractor5visitEPNS_6ESTree20ImportExpressionNodeE.exit, label %if.then.i

if.then.i:                                        ; preds = %entry
  %_value.i = getelementptr inbounds i8, ptr %node.48.val, i64 48
  %1 = load ptr, ptr %_value.i, align 8
  %agg.tmp.sroa.0.0.copyload.i = load ptr, ptr %1, align 8
  %agg.tmp.sroa.2.0.call2.sroa_idx.i = getelementptr inbounds i8, ptr %1, i64 8
  %agg.tmp.sroa.2.0.copyload.i = load i64, ptr %agg.tmp.sroa.2.0.call2.sroa_idx.i, align 8
  tail call fastcc void @_ZN6hermes12_GLOBAL__N_119DependencyExtractor13addDependencyEN4llvh9StringRefENS_14DependencyKindE(ptr noundef nonnull align 8 dereferenceable(145) %v, ptr %agg.tmp.sroa.0.0.copyload.i, i64 %agg.tmp.sroa.2.0.copyload.i, i32 noundef 3)
  br label %_ZN6hermes12_GLOBAL__N_119DependencyExtractor5visitEPNS_6ESTree20ImportExpressionNodeE.exit

_ZN6hermes12_GLOBAL__N_119DependencyExtractor5visitEPNS_6ESTree20ImportExpressionNodeE.exit: ; preds = %entry, %if.then.i
  ret void
}